; Function Attrs: nofree norecurse nosync nounwind memory(readwrite, inaccessiblemem: none) uwtable
define internal range(i32 0, 3) i32 @utf8_toUtf8(ptr readnone captures(none) %0, ptr noundef captures(none) %1, ptr noundef %2, ptr noundef captures(none) %3, ptr noundef %4) #9 {
  %6 = load ptr, ptr %1, align 8, !tbaa !4
  %7 = ptrtoint ptr %2 to i64
  %8 = ptrtoint ptr %6 to i64
  %9 = sub i64 %7, %8
  %10 = load ptr, ptr %3, align 8, !tbaa !4
  %11 = ptrtoint ptr %4 to i64
  %12 = ptrtoint ptr %10 to i64
  %13 = sub i64 %11, %12
  %14 = icmp sgt i64 %9, %13
  %15 = getelementptr inbounds i8, ptr %6, i64 %13
  %spec.select = select i1 %14, ptr %15, ptr %2
  %16 = icmp ugt ptr %spec.select, %6
  br i1 %16, label %.lr.ph.preheader.i, label %_INTERNAL_trim_to_complete_utf8_characters.exit

.lr.ph.preheader.i:                               ; preds = %5
  %17 = ptrtoint ptr %spec.select to i64
  %18 = sub i64 %8, %17
  %scevgep.i = getelementptr i8, ptr %spec.select, i64 %18
  br label %.lr.ph.i

.lr.ph.i:                                         ; preds = %47, %.lr.ph.preheader.i
  %.01832.i = phi ptr [ %19, %47 ], [ %spec.select, %.lr.ph.preheader.i ]
  %.01931.i = phi i64 [ %48, %47 ], [ 0, %.lr.ph.preheader.i ]
  %19 = getelementptr inbounds i8, ptr %.01832.i, i64 -1
  %20 = load i8, ptr %19, align 1, !tbaa !9
  %21 = zext i8 %20 to i32
  %22 = and i32 %21, 248
  %23 = icmp eq i32 %22, 240
  br i1 %23, label %24, label %29

24:                                               ; preds = %.lr.ph.i
  %25 = add i64 %.01931.i, -3
  %26 = icmp ult i64 %25, -4
  br i1 %26, label %27, label %47

27:                                               ; preds = %24
  %28 = getelementptr inbounds nuw i8, ptr %.01832.i, i64 3
  br label %_INTERNAL_trim_to_complete_utf8_characters.exit

29:                                               ; preds = %.lr.ph.i
  %30 = and i32 %21, 240
  %31 = icmp eq i32 %30, 224
  br i1 %31, label %32, label %37

32:                                               ; preds = %29
  %33 = add i64 %.01931.i, -2
  %34 = icmp ult i64 %33, -3
  br i1 %34, label %35, label %47

35:                                               ; preds = %32
  %36 = getelementptr inbounds nuw i8, ptr %.01832.i, i64 2
  br label %_INTERNAL_trim_to_complete_utf8_characters.exit

37:                                               ; preds = %29
  %38 = and i32 %21, 224
  %39 = icmp eq i32 %38, 192
  br i1 %39, label %40, label %45

40:                                               ; preds = %37
  %41 = add i64 %.01931.i, -1
  %42 = icmp ult i64 %41, -2
  br i1 %42, label %43, label %47

43:                                               ; preds = %40
  %44 = getelementptr inbounds nuw i8, ptr %.01832.i, i64 1
  br label %_INTERNAL_trim_to_complete_utf8_characters.exit

45:                                               ; preds = %37
  %46 = icmp sgt i8 %20, -1
  br i1 %46, label %_INTERNAL_trim_to_complete_utf8_characters.exit, label %47

47:                                               ; preds = %45, %40, %32, %24
  %.120.ph.i = phi i64 [ %.01931.i, %45 ], [ 0, %40 ], [ 0, %32 ], [ 0, %24 ]
  %48 = add i64 %.120.ph.i, 1
  %49 = icmp ugt ptr %19, %6
  br i1 %49, label %.lr.ph.i, label %_INTERNAL_trim_to_complete_utf8_characters.exit, !llvm.loop !10

_INTERNAL_trim_to_complete_utf8_characters.exit:  ; preds = %45, %47, %5, %27, %35, %43
  %.1.i = phi ptr [ %28, %27 ], [ %36, %35 ], [ %44, %43 ], [ %spec.select, %5 ], [ %.01832.i, %45 ], [ %scevgep.i, %47 ]
  %50 = icmp ult ptr %.1.i, %spec.select
  %51 = ptrtoint ptr %.1.i to i64
  %52 = sub i64 %51, %8
  tail call void @llvm.memcpy.p0.p0.i64(ptr align 1 %10, ptr align 1 %6, i64 %52, i1 false)
  %53 = load ptr, ptr %1, align 8, !tbaa !4
  %54 = getelementptr inbounds i8, ptr %53, i64 %52
  store ptr %54, ptr %1, align 8, !tbaa !4
  %55 = load ptr, ptr %3, align 8, !tbaa !4
  %56 = getelementptr inbounds i8, ptr %55, i64 %52
  store ptr %56, ptr %3, align 8, !tbaa !4
  %. = zext i1 %50 to i32
  %.0 = select i1 %14, i32 2, i32 %.
  ret i32 %.0
}